; Function Attrs: nounwind uwtable
define internal ptr @rsakem_dupctx(ptr noundef readonly captures(none) %0) #0 {
  %2 = tail call i32 @ossl_prov_is_running() #5
  %.not = icmp eq i32 %2, 0
  br i1 %.not, label %12, label %3

3:                                                ; preds = %1
  %4 = tail call noalias ptr @CRYPTO_zalloc(i64 noundef 24, ptr noundef nonnull @.str, i32 noundef 117) #5
  %5 = icmp eq ptr %4, null
  br i1 %5, label %12, label %6

6:                                                ; preds = %3
  tail call void @llvm.memcpy.p0.p0.i64(ptr noundef nonnull align 8 dereferenceable(24) %4, ptr noundef nonnull align 8 dereferenceable(24) %0, i64 24, i1 false), !tbaa.struct !15
  %7 = getelementptr inbounds nuw i8, ptr %4, i64 8
  %8 = load ptr, ptr %7, align 8, !tbaa !12
  %.not11 = icmp eq ptr %8, null
  br i1 %.not11, label %12, label %9

9:                                                ; preds = %6
  %10 = tail call i32 @RSA_up_ref(ptr noundef nonnull %8) #5
  %.not12 = icmp eq i32 %10, 0
  br i1 %.not12, label %11, label %12

11:                                               ; preds = %9
  tail call void @CRYPTO_free(ptr noundef nonnull %4, ptr noundef nonnull @.str, i32 noundef 123) #5
  br label %12

12:                                               ; preds = %6, %9, %3, %1, %11
  %.0 = phi ptr [ null, %11 ], [ null, %1 ], [ null, %3 ], [ %4, %9 ], [ %4, %6 ]
  ret ptr %.0
}